target datalayout = "e-m:e-p270:32:32-p271:32:32-p272:64:64-i64:64-i128:128-f80:128-n8:16:32:64-S128"
target triple = "x86_64-pc-linux-gnu"

%struct.redisReply = type { i32, i64, double, i64, ptr, [4 x i8], i64, ptr }
%struct.clusterManagerNode = type { ptr, ptr, ptr, i32, i32, i64, i64, i64, i32, ptr, ptr, i32, [16384 x i8], i32, i32, ptr, ptr, ptr, i32, i32, float, i32 }

@.str.168 = private unnamed_addr constant [35 x i8] c"Node %s:%d replied with error:\0A%s\0A\00", align 1

; Function Attrs: nounwind uwtable
define internal i32 @clusterManagerCheckRedisReply(ptr noundef %0, ptr noundef %1, ptr noundef %2) #0 {
  %4 = alloca i32, align 4
  %5 = alloca ptr, align 8
  %6 = alloca ptr, align 8
  %7 = alloca ptr, align 8
  %8 = alloca i32, align 4
  %9 = alloca i32, align 4
  store ptr %0, ptr %5, align 8, !tbaa !88
  store ptr %1, ptr %6, align 8, !tbaa !46
  store ptr %2, ptr %7, align 8, !tbaa !42
  call void @llvm.lifetime.start.p0(i64 4, ptr %8) #15
  store i32 0, ptr %8, align 4, !tbaa !10
  %10 = load ptr, ptr %6, align 8, !tbaa !46
  %11 = icmp ne ptr %10, null
  br i1 %11, label %12, label %18

12:                                               ; preds = %3
  %13 = load ptr, ptr %6, align 8, !tbaa !46
  %14 = getelementptr inbounds nuw %struct.redisReply, ptr %13, i32 0, i32 0
  %15 = load i32, ptr %14, align 8, !tbaa !68
  %16 = icmp eq i32 %15, 6
  %17 = zext i1 %16 to i32
  store i32 %17, ptr %8, align 4, !tbaa !10
  br i1 %16, label %18, label %54

18:                                               ; preds = %12, %3
  %19 = load i32, ptr %8, align 4, !tbaa !10
  %20 = icmp ne i32 %19, 0
  br i1 %20, label %21, label %53

21:                                               ; preds = %18
  %22 = load ptr, ptr %7, align 8, !tbaa !42
  %23 = icmp ne ptr %22, null
  br i1 %23, label %24, label %42

24:                                               ; preds = %21
  %25 = load ptr, ptr %6, align 8, !tbaa !46
  %26 = getelementptr inbounds nuw %struct.redisReply, ptr %25, i32 0, i32 3
  %27 = load i64, ptr %26, align 8, !tbaa !76
  %28 = add i64 %27, 1
  %29 = mul i64 %28, 1
  %30 = call noalias ptr @zmalloc(i64 noundef %29) #18
  %31 = load ptr, ptr %7, align 8, !tbaa !42
  store ptr %30, ptr %31, align 8, !tbaa !5
  %32 = load ptr, ptr %7, align 8, !tbaa !42
  %33 = load ptr, ptr %32, align 8, !tbaa !5
  %34 = load ptr, ptr %6, align 8, !tbaa !46
  %35 = getelementptr inbounds nuw %struct.redisReply, ptr %34, i32 0, i32 4
  %36 = load ptr, ptr %35, align 8, !tbaa !54
  %37 = load ptr, ptr %6, align 8, !tbaa !46
  %38 = getelementptr inbounds nuw %struct.redisReply, ptr %37, i32 0, i32 3
  %39 = load i64, ptr %38, align 8, !tbaa !76
  %40 = add i64 %39, 1
  %41 = call i64 @redis_strlcpy(ptr noundef %33, ptr noundef %36, i64 noundef %40)
  br label %52

42:                                               ; preds = %21
  %43 = load ptr, ptr %5, align 8, !tbaa !88
  %44 = getelementptr inbounds nuw %struct.clusterManagerNode, ptr %43, i32 0, i32 2
  %45 = load ptr, ptr %44, align 8, !tbaa !90
  %46 = load ptr, ptr %5, align 8, !tbaa !88
  %47 = getelementptr inbounds nuw %struct.clusterManagerNode, ptr %46, i32 0, i32 3
  %48 = load i32, ptr %47, align 8, !tbaa !93
  %49 = load ptr, ptr %6, align 8, !tbaa !46
  %50 = getelementptr inbounds nuw %struct.redisReply, ptr %49, i32 0, i32 4
  %51 = load ptr, ptr %50, align 8, !tbaa !54
  call void (i32, ptr, ...) @clusterManagerLog(i32 noundef 3, ptr noundef @.str.168, ptr noundef %45, i32 noundef %48, ptr noundef %51)
  br label %52

52:                                               ; preds = %42, %24
  br label %53

53:                                               ; preds = %52, %18
  store i32 0, ptr %4, align 4
  store i32 1, ptr %9, align 4
  br label %55

54:                                               ; preds = %12
  store i32 1, ptr %4, align 4
  store i32 1, ptr %9, align 4
  br label %55

55:                                               ; preds = %54, %53
  call void @llvm.lifetime.end.p0(i64 4, ptr %8) #15
  %56 = load i32, ptr %4, align 4
  ret i32 %56
}