; Function Attrs: nounwind uwtable
define internal fastcc range(i32 0, 2) i32 @clusterManagerCheckRedisReply(ptr noundef readonly captures(none) %0, ptr noundef readonly captures(address_is_null) %1, ptr noundef writeonly captures(address_is_null) %2) unnamed_addr #0 {
  %.not = icmp eq ptr %1, null
  br i1 %.not, label %.critedge, label %4

4:                                                ; preds = %3
  %5 = load i32, ptr %1, align 8, !tbaa !56
  %.not19 = icmp eq i32 %5, 6
  br i1 %.not19, label %.critedge18, label %.critedge

.critedge18:                                      ; preds = %4
  %.not16 = icmp eq ptr %2, null
  br i1 %.not16, label %16, label %6

6:                                                ; preds = %.critedge18
  %7 = getelementptr inbounds nuw i8, ptr %1, i64 24
  %8 = load i64, ptr %7, align 8, !tbaa !64
  %9 = add i64 %8, 1
  %10 = tail call noalias ptr @zmalloc(i64 noundef %9) #37
  store ptr %10, ptr %2, align 8, !tbaa !24
  %11 = getelementptr inbounds nuw i8, ptr %1, i64 32
  %12 = load ptr, ptr %11, align 8, !tbaa !36
  %13 = load i64, ptr %7, align 8, !tbaa !64
  %14 = add i64 %13, 1
  %15 = tail call i64 @redis_strlcpy(ptr noundef %10, ptr noundef %12, i64 noundef %14) #33
  br label %.critedge

16:                                               ; preds = %.critedge18
  %17 = getelementptr inbounds nuw i8, ptr %0, i64 16
  %18 = load ptr, ptr %17, align 8, !tbaa !74
  %19 = getelementptr inbounds nuw i8, ptr %0, i64 24
  %20 = load i32, ptr %19, align 8, !tbaa !77
  %21 = getelementptr inbounds nuw i8, ptr %1, i64 32
  %22 = load ptr, ptr %21, align 8, !tbaa !36
  tail call void (i32, ptr, ...) @clusterManagerLog(i32 noundef 3, ptr noundef nonnull @.str.168, ptr noundef %18, i32 noundef %20, ptr noundef %22)
  br label %.critedge

.critedge:                                        ; preds = %4, %16, %6, %3
  %.012 = phi i32 [ 0, %3 ], [ 0, %6 ], [ 0, %16 ], [ 1, %4 ]
  ret i32 %.012
}